target datalayout = "e-m:e-p270:32:32-p271:32:32-p272:64:64-i64:64-i128:128-f80:128-n8:16:32:64-S128"
target triple = "x86_64-pc-linux-gnu"

%struct.Map_SuperLibStruct_t_ = type { ptr, ptr, i32, i32, i32, i32, i32, ptr, ptr, ptr, [6 x [2 x i32]], [2 x i32], ptr, %struct.Map_TimeStruct_t_, float, float, ptr, ptr, ptr, ptr }
%struct.Map_TimeStruct_t_ = type { float, float, float }
%struct.Map_SuperStruct_t_ = type { i32, i32, [4 x i8], i32, [6 x ptr], ptr, [2 x i32], [6 x %struct.Map_TimeStruct_t_], [6 x %struct.Map_TimeStruct_t_], %struct.Map_TimeStruct_t_, float, ptr, ptr }

@.str = private unnamed_addr constant [2 x i8] c" \00", align 1
@.str.1 = private unnamed_addr constant [37 x i8] c"Cannot read the root gate names %s.\0A\00", align 1
@s_MapFanoutLimits = internal constant [10 x i32] [i32 1, i32 10, i32 5, i32 2, i32 1, i32 1, i32 1, i32 0, i32 0, i32 0], align 16
@.str.2 = private unnamed_addr constant [4 x i8] c" \0A\00\00", align 1
@.str.3 = private unnamed_addr constant [41 x i8] c"There are too many entries on the line.\0A\00", align 1
@.str.4 = private unnamed_addr constant [46 x i8] c"The number of a child supergate is negative.\0A\00", align 1
@.str.5 = private unnamed_addr constant [73 x i8] c"The number of a child supergate (%d) exceeded the number of lines (%d).\0A\00", align 1
@.str.6 = private unnamed_addr constant [47 x i8] c"The number of fanins of a root gate is wrong.\0A\00", align 1
@.str.7 = private unnamed_addr constant [44 x i8] c"The following trailing symbols found \22%s\22.\0A\00", align 1

; Function Attrs: inlinehint nounwind willreturn memory(read) uwtable
define available_externally i32 @atoi(ptr noundef nonnull %0) #5 {
  %2 = alloca ptr, align 8
  store ptr %0, ptr %2, align 8, !tbaa !8
  %3 = load ptr, ptr %2, align 8, !tbaa !8
  %4 = call i64 @strtol(ptr noundef %3, ptr noundef null, i32 noundef 10) #9
  %5 = trunc i64 %4 to i32
  ret i32 %5
}

; Function Attrs: nounwind uwtable
define ptr @Map_LibraryReadGateTree(ptr noundef %0, ptr noundef %1, i32 noundef %2, i32 noundef %3) #0 {
  %5 = alloca ptr, align 8
  %6 = alloca ptr, align 8
  %7 = alloca ptr, align 8
  %8 = alloca i32, align 4
  %9 = alloca i32, align 4
  %10 = alloca ptr, align 8
  %11 = alloca ptr, align 8
  %12 = alloca i32, align 4
  %13 = alloca i32, align 4
  %14 = alloca i32, align 4
  store ptr %0, ptr %6, align 8, !tbaa !3
  store ptr %1, ptr %7, align 8, !tbaa !8
  store i32 %2, ptr %8, align 4, !tbaa !10
  store i32 %3, ptr %9, align 4, !tbaa !10
  call void @llvm.lifetime.start.p0(i64 8, ptr %10) #9
  call void @llvm.lifetime.start.p0(i64 8, ptr %11) #9
  call void @llvm.lifetime.start.p0(i64 4, ptr %12) #9
  call void @llvm.lifetime.start.p0(i64 4, ptr %13) #9
  %15 = load ptr, ptr %6, align 8, !tbaa !3
  %16 = getelementptr inbounds nuw %struct.Map_SuperLibStruct_t_, ptr %15, i32 0, i32 17
  %17 = load ptr, ptr %16, align 8, !tbaa !12
  %18 = call ptr @Extra_MmFixedEntryFetch(ptr noundef %17)
  store ptr %18, ptr %10, align 8, !tbaa !23
  %19 = load ptr, ptr %10, align 8, !tbaa !23
  call void @llvm.memset.p0.i64(ptr align 8 %19, i8 0, i64 256, i1 false)
  %20 = load i32, ptr %8, align 4, !tbaa !10
  %21 = load ptr, ptr %10, align 8, !tbaa !23
  %22 = getelementptr inbounds nuw %struct.Map_SuperStruct_t_, ptr %21, i32 0, i32 0
  store i32 %20, ptr %22, align 8, !tbaa !24
  %23 = load ptr, ptr %7, align 8, !tbaa !8
  %24 = call ptr @strtok(ptr noundef %23, ptr noundef @.str) #9
  store ptr %24, ptr %11, align 8, !tbaa !8
  %25 = load ptr, ptr %11, align 8, !tbaa !8
  %26 = getelementptr inbounds i8, ptr %25, i64 0
  %27 = load i8, ptr %26, align 1, !tbaa !26
  %28 = sext i8 %27 to i32
  %29 = icmp eq i32 %28, 42
  br i1 %29, label %30, label %37

30:                                               ; preds = %4
  %31 = load ptr, ptr %10, align 8, !tbaa !23
  %32 = getelementptr inbounds nuw %struct.Map_SuperStruct_t_, ptr %31, i32 0, i32 1
  %33 = load i32, ptr %32, align 4
  %34 = and i32 %33, -2
  %35 = or i32 %34, 1
  store i32 %35, ptr %32, align 4
  %36 = call ptr @strtok(ptr noundef null, ptr noundef @.str) #9
  store ptr %36, ptr %11, align 8, !tbaa !8
  br label %37

37:                                               ; preds = %30, %4
  %38 = load ptr, ptr %6, align 8, !tbaa !3
  %39 = getelementptr inbounds nuw %struct.Map_SuperLibStruct_t_, ptr %38, i32 0, i32 1
  %40 = load ptr, ptr %39, align 8, !tbaa !27
  %41 = load ptr, ptr %11, align 8, !tbaa !8
  %42 = call ptr @Mio_LibraryReadGateByName(ptr noundef %40, ptr noundef %41, ptr noundef null)
  %43 = load ptr, ptr %10, align 8, !tbaa !23
  %44 = getelementptr inbounds nuw %struct.Map_SuperStruct_t_, ptr %43, i32 0, i32 5
  store ptr %42, ptr %44, align 8, !tbaa !28
  %45 = load ptr, ptr %10, align 8, !tbaa !23
  %46 = getelementptr inbounds nuw %struct.Map_SuperStruct_t_, ptr %45, i32 0, i32 5
  %47 = load ptr, ptr %46, align 8, !tbaa !28
  %48 = icmp eq ptr %47, null
  br i1 %48, label %49, label %52

49:                                               ; preds = %37
  %50 = load ptr, ptr %11, align 8, !tbaa !8
  %51 = call i32 (ptr, ...) @printf(ptr noundef @.str.1, ptr noundef %50)
  store ptr null, ptr %5, align 8
  store i32 1, ptr %14, align 4
  br label %194

52:                                               ; preds = %37
  %53 = load ptr, ptr %10, align 8, !tbaa !23
  %54 = getelementptr inbounds nuw %struct.Map_SuperStruct_t_, ptr %53, i32 0, i32 5
  %55 = load ptr, ptr %54, align 8, !tbaa !28
  %56 = call i32 @Mio_GateReadPinNum(ptr noundef %55)
  %57 = sext i32 %56 to i64
  %58 = getelementptr inbounds [10 x i32], ptr @s_MapFanoutLimits, i64 0, i64 %57
  %59 = load i32, ptr %58, align 4, !tbaa !10
  %60 = load ptr, ptr %10, align 8, !tbaa !23
  %61 = getelementptr inbounds nuw %struct.Map_SuperStruct_t_, ptr %60, i32 0, i32 1
  %62 = load i32, ptr %61, align 4
  %63 = and i32 %59, 15
  %64 = shl i32 %63, 8
  %65 = and i32 %62, -3841
  %66 = or i32 %65, %64
  store i32 %66, ptr %61, align 4
  store i32 0, ptr %12, align 4, !tbaa !10
  br label %67

67:                                               ; preds = %115, %52
  %68 = call ptr @strtok(ptr noundef null, ptr noundef @.str.2) #9
  store ptr %68, ptr %11, align 8, !tbaa !8
  %69 = icmp ne ptr %68, null
  br i1 %69, label %70, label %118

70:                                               ; preds = %67
  %71 = load ptr, ptr %11, align 8, !tbaa !8
  %72 = getelementptr inbounds i8, ptr %71, i64 0
  %73 = load i8, ptr %72, align 1, !tbaa !26
  %74 = sext i8 %73 to i32
  %75 = icmp eq i32 %74, 35
  br i1 %75, label %76, label %77

76:                                               ; preds = %70
  br label %118

77:                                               ; preds = %70
  %78 = load i32, ptr %12, align 4, !tbaa !10
  %79 = load i32, ptr %9, align 4, !tbaa !10
  %80 = icmp eq i32 %78, %79
  br i1 %80, label %81, label %83

81:                                               ; preds = %77
  %82 = call i32 (ptr, ...) @printf(ptr noundef @.str.3)
  store ptr null, ptr %5, align 8
  store i32 1, ptr %14, align 4
  br label %194

83:                                               ; preds = %77
  %84 = load ptr, ptr %11, align 8, !tbaa !8
  %85 = call i32 @atoi(ptr noundef %84) #10
  store i32 %85, ptr %13, align 4, !tbaa !10
  %86 = load i32, ptr %13, align 4, !tbaa !10
  %87 = icmp slt i32 %86, 0
  br i1 %87, label %88, label %90

88:                                               ; preds = %83
  %89 = call i32 (ptr, ...) @printf(ptr noundef @.str.4)
  store ptr null, ptr %5, align 8
  store i32 1, ptr %14, align 4
  br label %194

90:                                               ; preds = %83
  %91 = load i32, ptr %13, align 4, !tbaa !10
  %92 = load ptr, ptr %6, align 8, !tbaa !3
  %93 = getelementptr inbounds nuw %struct.Map_SuperLibStruct_t_, ptr %92, i32 0, i32 5
  %94 = load i32, ptr %93, align 4, !tbaa !29
  %95 = icmp sgt i32 %91, %94
  br i1 %95, label %96, label %102

96:                                               ; preds = %90
  %97 = load i32, ptr %13, align 4, !tbaa !10
  %98 = load ptr, ptr %6, align 8, !tbaa !3
  %99 = getelementptr inbounds nuw %struct.Map_SuperLibStruct_t_, ptr %98, i32 0, i32 5
  %100 = load i32, ptr %99, align 4, !tbaa !29
  %101 = call i32 (ptr, ...) @printf(ptr noundef @.str.5, i32 noundef %97, i32 noundef %100)
  store ptr null, ptr %5, align 8
  store i32 1, ptr %14, align 4
  br label %194

102:                                              ; preds = %90
  %103 = load ptr, ptr %6, align 8, !tbaa !3
  %104 = getelementptr inbounds nuw %struct.Map_SuperLibStruct_t_, ptr %103, i32 0, i32 7
  %105 = load ptr, ptr %104, align 8, !tbaa !30
  %106 = load i32, ptr %13, align 4, !tbaa !10
  %107 = sext i32 %106 to i64
  %108 = getelementptr inbounds ptr, ptr %105, i64 %107
  %109 = load ptr, ptr %108, align 8, !tbaa !23
  %110 = load ptr, ptr %10, align 8, !tbaa !23
  %111 = getelementptr inbounds nuw %struct.Map_SuperStruct_t_, ptr %110, i32 0, i32 4
  %112 = load i32, ptr %12, align 4, !tbaa !10
  %113 = sext i32 %112 to i64
  %114 = getelementptr inbounds [6 x ptr], ptr %111, i64 0, i64 %113
  store ptr %109, ptr %114, align 8, !tbaa !23
  br label %115

115:                                              ; preds = %102
  %116 = load i32, ptr %12, align 4, !tbaa !10
  %117 = add nsw i32 %116, 1
  store i32 %117, ptr %12, align 4, !tbaa !10
  br label %67, !llvm.loop !31

118:                                              ; preds = %76, %67
  %119 = load i32, ptr %12, align 4, !tbaa !10
  %120 = load ptr, ptr %10, align 8, !tbaa !23
  %121 = getelementptr inbounds nuw %struct.Map_SuperStruct_t_, ptr %120, i32 0, i32 1
  %122 = load i32, ptr %121, align 4
  %123 = and i32 %119, 7
  %124 = shl i32 %123, 2
  %125 = and i32 %122, -29
  %126 = or i32 %125, %124
  store i32 %126, ptr %121, align 4
  %127 = load ptr, ptr %10, align 8, !tbaa !23
  %128 = getelementptr inbounds nuw %struct.Map_SuperStruct_t_, ptr %127, i32 0, i32 1
  %129 = load i32, ptr %128, align 4
  %130 = lshr i32 %129, 2
  %131 = and i32 %130, 7
  %132 = load ptr, ptr %10, align 8, !tbaa !23
  %133 = getelementptr inbounds nuw %struct.Map_SuperStruct_t_, ptr %132, i32 0, i32 5
  %134 = load ptr, ptr %133, align 8, !tbaa !28
  %135 = call i32 @Mio_GateReadPinNum(ptr noundef %134)
  %136 = icmp ne i32 %131, %135
  br i1 %136, label %137, label %139

137:                                              ; preds = %118
  %138 = call i32 (ptr, ...) @printf(ptr noundef @.str.6)
  store ptr null, ptr %5, align 8
  store i32 1, ptr %14, align 4
  br label %194

139:                                              ; preds = %118
  %140 = load ptr, ptr %11, align 8, !tbaa !8
  %141 = icmp ne ptr %140, null
  br i1 %141, label %142, label %185

142:                                              ; preds = %139
  %143 = load ptr, ptr %11, align 8, !tbaa !8
  %144 = getelementptr inbounds i8, ptr %143, i64 0
  %145 = load i8, ptr %144, align 1, !tbaa !26
  %146 = sext i8 %145 to i32
  %147 = icmp eq i32 %146, 35
  br i1 %147, label %148, label %185

148:                                              ; preds = %142
  %149 = load ptr, ptr %11, align 8, !tbaa !8
  %150 = getelementptr inbounds i8, ptr %149, i64 1
  %151 = load i8, ptr %150, align 1, !tbaa !26
  %152 = sext i8 %151 to i32
  %153 = icmp eq i32 %152, 0
  br i1 %153, label %154, label %156

154:                                              ; preds = %148
  %155 = call ptr @strtok(ptr noundef null, ptr noundef @.str.2) #9
  store ptr %155, ptr %11, align 8, !tbaa !8
  br label %169

156:                                              ; preds = %148
  %157 = load ptr, ptr %11, align 8, !tbaa !8
  %158 = getelementptr inbounds nuw i8, ptr %157, i32 1
  store ptr %158, ptr %11, align 8, !tbaa !8
  br label %159

159:                                              ; preds = %165, %156
  %160 = load ptr, ptr %11, align 8, !tbaa !8
  %161 = load i8, ptr %160, align 1, !tbaa !26
  %162 = sext i8 %161 to i32
  %163 = icmp eq i32 %162, 32
  br i1 %163, label %164, label %168

164:                                              ; preds = %159
  br label %165

165:                                              ; preds = %164
  %166 = load ptr, ptr %11, align 8, !tbaa !8
  %167 = getelementptr inbounds nuw i8, ptr %166, i32 1
  store ptr %167, ptr %11, align 8, !tbaa !8
  br label %159, !llvm.loop !33

168:                                              ; preds = %159
  br label %169

169:                                              ; preds = %168, %154
  %170 = load ptr, ptr %6, align 8, !tbaa !3
  %171 = getelementptr inbounds nuw %struct.Map_SuperLibStruct_t_, ptr %170, i32 0, i32 19
  %172 = load ptr, ptr %171, align 8, !tbaa !34
  %173 = load ptr, ptr %11, align 8, !tbaa !8
  %174 = call i64 @strlen(ptr noundef %173) #10
  %175 = add i64 %174, 1
  %176 = trunc i64 %175 to i32
  %177 = call ptr @Extra_MmFlexEntryFetch(ptr noundef %172, i32 noundef %176)
  %178 = load ptr, ptr %10, align 8, !tbaa !23
  %179 = getelementptr inbounds nuw %struct.Map_SuperStruct_t_, ptr %178, i32 0, i32 11
  store ptr %177, ptr %179, align 8, !tbaa !35
  %180 = load ptr, ptr %10, align 8, !tbaa !23
  %181 = getelementptr inbounds nuw %struct.Map_SuperStruct_t_, ptr %180, i32 0, i32 11
  %182 = load ptr, ptr %181, align 8, !tbaa !35
  %183 = load ptr, ptr %11, align 8, !tbaa !8
  %184 = call ptr @strcpy(ptr noundef %182, ptr noundef %183) #9
  br label %185

185:                                              ; preds = %169, %142, %139
  %186 = call ptr @strtok(ptr noundef null, ptr noundef @.str.2) #9
  store ptr %186, ptr %11, align 8, !tbaa !8
  %187 = load ptr, ptr %11, align 8, !tbaa !8
  %188 = icmp ne ptr %187, null
  br i1 %188, label %189, label %192

189:                                              ; preds = %185
  %190 = load ptr, ptr %11, align 8, !tbaa !8
  %191 = call i32 (ptr, ...) @printf(ptr noundef @.str.7, ptr noundef %190)
  br label %192

192:                                              ; preds = %189, %185
  %193 = load ptr, ptr %10, align 8, !tbaa !23
  store ptr %193, ptr %5, align 8
  store i32 1, ptr %14, align 4
  br label %194

194:                                              ; preds = %192, %137, %96, %88, %81, %49
  call void @llvm.lifetime.end.p0(i64 4, ptr %13) #9
  call void @llvm.lifetime.end.p0(i64 4, ptr %12) #9
  call void @llvm.lifetime.end.p0(i64 8, ptr %11) #9
  call void @llvm.lifetime.end.p0(i64 8, ptr %10) #9
  %195 = load ptr, ptr %5, align 8
  ret ptr %195
}