; Function Attrs: nounwind uwtable
define noundef ptr @Map_LibraryReadGateTree(ptr noundef readonly captures(none) %0, ptr noundef %1, i32 noundef %2, i32 noundef %3) local_unnamed_addr #0 {
  %5 = getelementptr inbounds nuw i8, ptr %0, i64 160
  %6 = load ptr, ptr %5, align 8, !tbaa !3
  %7 = tail call ptr @Extra_MmFixedEntryFetch(ptr noundef %6) #16
  tail call void @llvm.memset.p0.i64(ptr noundef nonnull align 8 dereferenceable(256) %7, i8 0, i64 256, i1 false)
  store i32 %2, ptr %7, align 8, !tbaa !19
  %8 = tail call ptr @strtok(ptr noundef %1, ptr noundef nonnull @.str) #16
  %9 = load i8, ptr %8, align 1, !tbaa !21
  %10 = icmp eq i8 %9, 42
  br i1 %10, label %11, label %16

11:                                               ; preds = %4
  %12 = getelementptr inbounds nuw i8, ptr %7, i64 4
  %13 = load i32, ptr %12, align 4
  %14 = or i32 %13, 1
  store i32 %14, ptr %12, align 4
  %15 = tail call ptr @strtok(ptr noundef null, ptr noundef nonnull @.str) #16
  br label %16

16:                                               ; preds = %11, %4
  %.047 = phi ptr [ %15, %11 ], [ %8, %4 ]
  %17 = getelementptr inbounds nuw i8, ptr %0, i64 8
  %18 = load ptr, ptr %17, align 8, !tbaa !22
  %19 = tail call ptr @Mio_LibraryReadGateByName(ptr noundef %18, ptr noundef %.047, ptr noundef null) #16
  %20 = getelementptr inbounds nuw i8, ptr %7, i64 64
  store ptr %19, ptr %20, align 8, !tbaa !23
  %21 = icmp eq ptr %19, null
  br i1 %21, label %22, label %24

22:                                               ; preds = %16
  %23 = tail call i32 (ptr, ...) @printf(ptr noundef nonnull dereferenceable(1) @.str.1, ptr noundef %.047)
  br label %95

24:                                               ; preds = %16
  %25 = tail call i32 @Mio_GateReadPinNum(ptr noundef nonnull %19) #16
  %26 = sext i32 %25 to i64
  %27 = getelementptr inbounds [10 x i32], ptr @s_MapFanoutLimits, i64 0, i64 %26
  %28 = load i32, ptr %27, align 4, !tbaa !24
  %29 = getelementptr inbounds nuw i8, ptr %7, i64 4
  %30 = load i32, ptr %29, align 4
  %31 = shl i32 %28, 8
  %32 = and i32 %31, 3840
  %33 = and i32 %30, -3841
  %34 = or disjoint i32 %33, %32
  store i32 %34, ptr %29, align 4
  %35 = tail call ptr @strtok(ptr noundef null, ptr noundef nonnull @.str.2) #16
  %.not70 = icmp eq ptr %35, null
  br i1 %.not70, label %._crit_edge, label %.lr.ph

.lr.ph:                                           ; preds = %24
  %36 = getelementptr inbounds nuw i8, ptr %0, i64 28
  %37 = getelementptr inbounds nuw i8, ptr %0, i64 40
  %38 = getelementptr inbounds nuw i8, ptr %7, i64 16
  %39 = zext i32 %3 to i64
  br label %40

40:                                               ; preds = %.lr.ph, %56
  %indvars.iv = phi i64 [ 0, %.lr.ph ], [ %indvars.iv.next, %56 ]
  %41 = phi ptr [ %35, %.lr.ph ], [ %62, %56 ]
  %42 = load i8, ptr %41, align 1, !tbaa !21
  %.not95.not.not = icmp ne i8 %42, 35
  br i1 %.not95.not.not, label %43, label %._crit_edge.loopexit

43:                                               ; preds = %40
  %44 = icmp eq i64 %indvars.iv, %39
  br i1 %44, label %45, label %46

45:                                               ; preds = %43
  %puts54 = tail call i32 @puts(ptr nonnull dereferenceable(1) @str.1)
  br label %95

46:                                               ; preds = %43
  %47 = tail call i64 @strtol(ptr noundef nonnull captures(none) %41, ptr noundef null, i32 noundef 10) #16
  %48 = trunc i64 %47 to i32
  %49 = icmp slt i32 %48, 0
  br i1 %49, label %50, label %51

50:                                               ; preds = %46
  %puts = tail call i32 @puts(ptr nonnull dereferenceable(1) @str)
  br label %95

51:                                               ; preds = %46
  %52 = load i32, ptr %36, align 4, !tbaa !25
  %53 = icmp slt i32 %52, %48
  br i1 %53, label %54, label %56

54:                                               ; preds = %51
  %55 = tail call i32 (ptr, ...) @printf(ptr noundef nonnull dereferenceable(1) @.str.5, i32 noundef %48, i32 noundef %52)
  br label %95

56:                                               ; preds = %51
  %57 = load ptr, ptr %37, align 8, !tbaa !26
  %58 = and i64 %47, 2147483647
  %59 = getelementptr inbounds nuw ptr, ptr %57, i64 %58
  %60 = load ptr, ptr %59, align 8, !tbaa !27
  %61 = getelementptr inbounds nuw [6 x ptr], ptr %38, i64 0, i64 %indvars.iv
  store ptr %60, ptr %61, align 8, !tbaa !27
  %indvars.iv.next = add nuw nsw i64 %indvars.iv, 1
  %62 = tail call ptr @strtok(ptr noundef null, ptr noundef nonnull @.str.2) #16
  %.not = icmp eq ptr %62, null
  br i1 %.not, label %._crit_edge.loopexit, label %40, !llvm.loop !28

._crit_edge.loopexit:                             ; preds = %40, %56
  %.046.lcssa.ph.in = phi i64 [ %indvars.iv, %40 ], [ %indvars.iv.next, %56 ]
  %.lcssa.ph = phi ptr [ %41, %40 ], [ null, %56 ]
  %.046.lcssa.ph = trunc i64 %.046.lcssa.ph.in to i32
  br label %._crit_edge

._crit_edge:                                      ; preds = %._crit_edge.loopexit, %24
  %.046.lcssa = phi i32 [ 0, %24 ], [ %.046.lcssa.ph, %._crit_edge.loopexit ]
  %.lcssa = phi ptr [ null, %24 ], [ %.lcssa.ph, %._crit_edge.loopexit ]
  %.not.lcssa = phi i1 [ true, %24 ], [ %.not95.not.not, %._crit_edge.loopexit ]
  %63 = load i32, ptr %29, align 4
  %64 = shl i32 %.046.lcssa, 2
  %65 = and i32 %64, 28
  %66 = and i32 %63, -29
  %67 = or disjoint i32 %66, %65
  store i32 %67, ptr %29, align 4
  %68 = and i32 %.046.lcssa, 7
  %69 = load ptr, ptr %20, align 8, !tbaa !23
  %70 = tail call i32 @Mio_GateReadPinNum(ptr noundef %69) #16
  %.not55 = icmp eq i32 %68, %70
  br i1 %.not55, label %72, label %71

71:                                               ; preds = %._crit_edge
  %puts57 = tail call i32 @puts(ptr nonnull dereferenceable(1) @str.2)
  br label %95

72:                                               ; preds = %._crit_edge
  br i1 %.not.lcssa, label %91, label %73

73:                                               ; preds = %72
  %74 = load i8, ptr %.lcssa, align 1, !tbaa !21
  %75 = icmp eq i8 %74, 35
  br i1 %75, label %76, label %91

76:                                               ; preds = %73
  %77 = getelementptr inbounds nuw i8, ptr %.lcssa, i64 1
  %78 = load i8, ptr %77, align 1, !tbaa !21
  switch i8 %78, label %.loopexit [
    i8 0, label %79
    i8 32, label %.lr.ph80
  ]

79:                                               ; preds = %76
  %80 = tail call ptr @strtok(ptr noundef null, ptr noundef nonnull @.str.2) #16
  br label %.loopexit

.lr.ph80:                                         ; preds = %76, %.lr.ph80
  %.279 = phi ptr [ %81, %.lr.ph80 ], [ %77, %76 ]
  %81 = getelementptr inbounds nuw i8, ptr %.279, i64 1
  %.pr = load i8, ptr %81, align 1, !tbaa !21
  %82 = icmp eq i8 %.pr, 32
  br i1 %82, label %.lr.ph80, label %.loopexit, !llvm.loop !30

.loopexit:                                        ; preds = %.lr.ph80, %76, %79
  %.1 = phi ptr [ %80, %79 ], [ %77, %76 ], [ %81, %.lr.ph80 ]
  %83 = getelementptr inbounds nuw i8, ptr %0, i64 176
  %84 = load ptr, ptr %83, align 8, !tbaa !31
  %85 = tail call i64 @strlen(ptr noundef nonnull dereferenceable(1) %.1) #17
  %86 = trunc i64 %85 to i32
  %87 = add i32 %86, 1
  %88 = tail call ptr @Extra_MmFlexEntryFetch(ptr noundef %84, i32 noundef %87) #16
  %89 = getelementptr inbounds nuw i8, ptr %7, i64 240
  store ptr %88, ptr %89, align 8, !tbaa !32
  %90 = tail call ptr @strcpy(ptr noundef nonnull dereferenceable(1) %88, ptr noundef nonnull dereferenceable(1) %.1) #16
  br label %91

91:                                               ; preds = %.loopexit, %73, %72
  %92 = tail call ptr @strtok(ptr noundef null, ptr noundef nonnull @.str.2) #16
  %.not56 = icmp eq ptr %92, null
  br i1 %.not56, label %95, label %93

93:                                               ; preds = %91
  %94 = tail call i32 (ptr, ...) @printf(ptr noundef nonnull dereferenceable(1) @.str.7, ptr noundef nonnull %92)
  br label %95

95:                                               ; preds = %91, %93, %71, %54, %50, %45, %22
  %.0 = phi ptr [ null, %22 ], [ null, %71 ], [ null, %45 ], [ null, %50 ], [ null, %54 ], [ %7, %93 ], [ %7, %91 ]
  ret ptr %.0
}